target datalayout = "e-m:e-p270:32:32-p271:32:32-p272:64:64-i64:64-i128:128-f80:128-n8:16:32:64-S128"
target triple = "x86_64-pc-linux-gnu"

%struct.SwsInternal = type { %struct.SwsContext, ptr, ptr, ptr, ptr, i32, [2 x ptr], i32, i32, ptr, i32, i32, i32, i32, i32, i32, i32, i32, i32, i32, i32, i32, i32, i32, i32, i32, i32, i32, ptr, ptr, %struct.RangeList, [3 x ptr], [2 x [4 x i32]], [2 x [4 x ptr]], i32, double, i32, ptr, ptr, i32, [2 x i32], i32, ptr, ptr, [256 x i32], [256 x i32], [256 x float], i32, i32, ptr, i32, ptr, ptr, ptr, ptr, ptr, ptr, ptr, ptr, i32, i32, i32, i32, i32, i32, ptr, ptr, i32, i32, i32, ptr, [8 x i8], [1280 x i32], [1280 x ptr], [1280 x ptr], [1280 x ptr], [176 x i32], [4 x ptr], i32, i32, i32, [4 x i32], [4 x i32], i32, i32, i32, i32, i32, i32, i32, i32, i32, i32, i64, i64, i64, i64, i64, i64, i64, i64, i64, i64, i64, [1024 x i32], [1024 x i32], i32, i64, i64, i64, i64, i64, [1024 x i32], i64, i64, [8 x i16], [8 x i32], ptr, ptr, i32, ptr, ptr, ptr, ptr, [3 x [4 x i16]], [3 x [4 x i16]], ptr, ptr, ptr, ptr, ptr, ptr, ptr, ptr, ptr, ptr, ptr, ptr, ptr, ptr, ptr, ptr, ptr, ptr, ptr, ptr, i32, i32, i64, i64, i32, ptr, i32, ptr, i32, i32, i32, i32, i32, ptr }
%struct.SwsContext = type { ptr, ptr, i32, [2 x double], i32, i32, i32, i32, i32, i32, i32, i32, i32, i32, i32, i32, i32, i32, i32, i32, i32 }
%struct.RangeList = type { ptr, i32, i32 }

; Function Attrs: nounwind uwtable
define internal i32 @scale_cascaded(ptr noundef %0, ptr noundef %1, ptr noundef %2, i32 noundef %3, i32 noundef %4, ptr noundef %5, ptr noundef %6, i32 noundef %7, i32 noundef %8) #0 {
  %10 = alloca i32, align 4
  %11 = alloca ptr, align 8
  %12 = alloca ptr, align 8
  %13 = alloca ptr, align 8
  %14 = alloca i32, align 4
  %15 = alloca i32, align 4
  %16 = alloca ptr, align 8
  %17 = alloca ptr, align 8
  %18 = alloca i32, align 4
  %19 = alloca i32, align 4
  %20 = alloca i32, align 4
  %21 = alloca i32, align 4
  %22 = alloca i32, align 4
  store ptr %0, ptr %11, align 8, !tbaa !4
  store ptr %1, ptr %12, align 8, !tbaa !9
  store ptr %2, ptr %13, align 8, !tbaa !12
  store i32 %3, ptr %14, align 4, !tbaa !14
  store i32 %4, ptr %15, align 4, !tbaa !14
  store ptr %5, ptr %16, align 8, !tbaa !9
  store ptr %6, ptr %17, align 8, !tbaa !12
  store i32 %7, ptr %18, align 4, !tbaa !14
  store i32 %8, ptr %19, align 4, !tbaa !14
  call void @llvm.lifetime.start.p0(i64 4, ptr %20) #11
  %23 = load ptr, ptr %11, align 8, !tbaa !4
  %24 = getelementptr inbounds nuw %struct.SwsInternal, ptr %23, i32 0, i32 31
  %25 = getelementptr inbounds [3 x ptr], ptr %24, i64 0, i64 0
  %26 = load ptr, ptr %25, align 16, !tbaa !90
  %27 = getelementptr inbounds nuw %struct.SwsContext, ptr %26, i32 0, i32 11
  %28 = load i32, ptr %27, align 4, !tbaa !143
  store i32 %28, ptr %20, align 4, !tbaa !14
  call void @llvm.lifetime.start.p0(i64 4, ptr %21) #11
  %29 = load ptr, ptr %11, align 8, !tbaa !4
  %30 = getelementptr inbounds nuw %struct.SwsInternal, ptr %29, i32 0, i32 31
  %31 = getelementptr inbounds [3 x ptr], ptr %30, i64 0, i64 0
  %32 = load ptr, ptr %31, align 16, !tbaa !90
  %33 = load ptr, ptr %12, align 8, !tbaa !9
  %34 = load ptr, ptr %13, align 8, !tbaa !12
  %35 = load i32, ptr %14, align 4, !tbaa !14
  %36 = load i32, ptr %15, align 4, !tbaa !14
  %37 = load ptr, ptr %11, align 8, !tbaa !4
  %38 = getelementptr inbounds nuw %struct.SwsInternal, ptr %37, i32 0, i32 33
  %39 = getelementptr inbounds [2 x [4 x ptr]], ptr %38, i64 0, i64 0
  %40 = getelementptr inbounds [4 x ptr], ptr %39, i64 0, i64 0
  %41 = load ptr, ptr %11, align 8, !tbaa !4
  %42 = getelementptr inbounds nuw %struct.SwsInternal, ptr %41, i32 0, i32 32
  %43 = getelementptr inbounds [2 x [4 x i32]], ptr %42, i64 0, i64 0
  %44 = getelementptr inbounds [4 x i32], ptr %43, i64 0, i64 0
  %45 = load i32, ptr %20, align 4, !tbaa !14
  %46 = call i32 @scale_internal(ptr noundef %32, ptr noundef %33, ptr noundef %34, i32 noundef %35, i32 noundef %36, ptr noundef %40, ptr noundef %44, i32 noundef 0, i32 noundef %45)
  store i32 %46, ptr %21, align 4, !tbaa !14
  %47 = load i32, ptr %21, align 4, !tbaa !14
  %48 = icmp slt i32 %47, 0
  br i1 %48, label %49, label %51

49:                                               ; preds = %9
  %50 = load i32, ptr %21, align 4, !tbaa !14
  store i32 %50, ptr %10, align 4
  store i32 1, ptr %22, align 4
  br label %71

51:                                               ; preds = %9
  %52 = load ptr, ptr %11, align 8, !tbaa !4
  %53 = getelementptr inbounds nuw %struct.SwsInternal, ptr %52, i32 0, i32 31
  %54 = getelementptr inbounds [3 x ptr], ptr %53, i64 0, i64 1
  %55 = load ptr, ptr %54, align 8, !tbaa !90
  %56 = load ptr, ptr %11, align 8, !tbaa !4
  %57 = getelementptr inbounds nuw %struct.SwsInternal, ptr %56, i32 0, i32 33
  %58 = getelementptr inbounds [2 x [4 x ptr]], ptr %57, i64 0, i64 0
  %59 = getelementptr inbounds [4 x ptr], ptr %58, i64 0, i64 0
  %60 = load ptr, ptr %11, align 8, !tbaa !4
  %61 = getelementptr inbounds nuw %struct.SwsInternal, ptr %60, i32 0, i32 32
  %62 = getelementptr inbounds [2 x [4 x i32]], ptr %61, i64 0, i64 0
  %63 = getelementptr inbounds [4 x i32], ptr %62, i64 0, i64 0
  %64 = load i32, ptr %20, align 4, !tbaa !14
  %65 = load ptr, ptr %16, align 8, !tbaa !9
  %66 = load ptr, ptr %17, align 8, !tbaa !12
  %67 = load i32, ptr %18, align 4, !tbaa !14
  %68 = load i32, ptr %19, align 4, !tbaa !14
  %69 = call i32 @scale_internal(ptr noundef %55, ptr noundef %59, ptr noundef %63, i32 noundef 0, i32 noundef %64, ptr noundef %65, ptr noundef %66, i32 noundef %67, i32 noundef %68)
  store i32 %69, ptr %21, align 4, !tbaa !14
  %70 = load i32, ptr %21, align 4, !tbaa !14
  store i32 %70, ptr %10, align 4
  store i32 1, ptr %22, align 4
  br label %71

71:                                               ; preds = %51, %49
  call void @llvm.lifetime.end.p0(i64 4, ptr %21) #11
  call void @llvm.lifetime.end.p0(i64 4, ptr %20) #11
  %72 = load i32, ptr %10, align 4
  ret i32 %72
}