; Function Attrs: nounwind uwtable
define internal fastcc i32 @scale_cascaded(ptr noundef %0, ptr noundef nonnull readonly captures(address_is_null) %1, ptr noundef nonnull readonly captures(address_is_null) %2, i32 noundef range(i32 1, 0) %3, ptr noundef nonnull readonly captures(address_is_null) %4, ptr noundef nonnull readonly captures(address_is_null) %5, i32 noundef %6, i32 noundef %7) unnamed_addr #0 {
  %9 = getelementptr inbounds nuw i8, ptr %0, i64 288
  %10 = load ptr, ptr %9, align 16, !tbaa !137
  %11 = getelementptr inbounds nuw i8, ptr %10, i64 68
  %12 = load i32, ptr %11, align 4, !tbaa !132
  %13 = getelementptr inbounds nuw i8, ptr %0, i64 344
  %14 = getelementptr inbounds nuw i8, ptr %0, i64 312
  %15 = tail call fastcc i32 @scale_internal(ptr noundef %10, ptr noundef nonnull %1, ptr noundef nonnull %2, i32 noundef 0, i32 noundef %3, ptr noundef nonnull %13, ptr noundef nonnull %14, i32 noundef 0, i32 noundef %12)
  %16 = icmp slt i32 %15, 0
  br i1 %16, label %21, label %17

17:                                               ; preds = %8
  %18 = getelementptr inbounds nuw i8, ptr %0, i64 296
  %19 = load ptr, ptr %18, align 8, !tbaa !137
  %20 = tail call fastcc i32 @scale_internal(ptr noundef %19, ptr noundef nonnull %13, ptr noundef nonnull %14, i32 noundef 0, i32 noundef %12, ptr noundef nonnull %4, ptr noundef nonnull %5, i32 noundef %6, i32 noundef %7)
  br label %21

21:                                               ; preds = %8, %17
  %.0 = phi i32 [ %20, %17 ], [ %15, %8 ]
  ret i32 %.0
}